target datalayout = "e-m:e-p270:32:32-p271:32:32-p272:64:64-i64:64-i128:128-f80:128-n8:16:32:64-S128"
target triple = "x86_64-pc-linux-gnu"

; Function Attrs: nounwind uwtable
define internal float @avifToLinearBT1361(float noundef %0) #0 {
  %2 = alloca float, align 4
  %3 = alloca float, align 4
  store float %0, ptr %3, align 4
  %4 = load float, ptr %3, align 4
  %5 = fcmp olt float %4, -2.500000e-01
  br i1 %5, label %6, label %7

6:                                                ; preds = %1
  store float -2.500000e-01, ptr %2, align 4
  br label %31

7:                                                ; preds = %1
  %8 = load float, ptr %3, align 4
  %9 = fcmp olt float %8, 0.000000e+00
  br i1 %9, label %10, label %16

10:                                               ; preds = %7
  %11 = load float, ptr %3, align 4
  %12 = fsub float %11, 0x3F996B8440000000
  %13 = fdiv float %12, 0xBFD196B840000000
  %14 = call float @powf(float noundef %13, float noundef 0x4001C71C80000000) #4
  %15 = fdiv float %14, -4.000000e+00
  store float %15, ptr %2, align 4
  br label %31

16:                                               ; preds = %7
  %17 = load float, ptr %3, align 4
  %18 = fcmp olt float %17, 0x3FB4CC5500000000
  br i1 %18, label %19, label %22

19:                                               ; preds = %16
  %20 = load float, ptr %3, align 4
  %21 = fdiv float %20, 4.500000e+00
  store float %21, ptr %2, align 4
  br label %31

22:                                               ; preds = %16
  %23 = load float, ptr %3, align 4
  %24 = fcmp olt float %23, 1.000000e+00
  br i1 %24, label %25, label %30

25:                                               ; preds = %22
  %26 = load float, ptr %3, align 4
  %27 = fadd float %26, 0x3FB96B8440000000
  %28 = fdiv float %27, 0x3FF196B840000000
  %29 = call float @powf(float noundef %28, float noundef 0x4001C71C80000000) #4
  store float %29, ptr %2, align 4
  br label %31

30:                                               ; preds = %22
  store float 1.000000e+00, ptr %2, align 4
  br label %31

31:                                               ; preds = %30, %25, %19, %10, %6
  %32 = load float, ptr %2, align 4
  ret float %32
}