; Function Attrs: mustprogress nofree nounwind willreturn memory(write) uwtable
define internal float @avifToLinearBT1361(float noundef %0) #5 {
  %2 = fcmp olt float %0, -2.500000e-01
  br i1 %2, label %20, label %3

3:                                                ; preds = %1
  %4 = fcmp olt float %0, 0.000000e+00
  br i1 %4, label %5, label %10

5:                                                ; preds = %3
  %6 = fadd float %0, 0xBF996B8440000000
  %7 = fdiv float %6, 0xBFD196B840000000
  %8 = tail call float @powf(float noundef %7, float noundef 0x4001C71C80000000) #9
  %9 = fmul float %8, -2.500000e-01
  br label %20

10:                                               ; preds = %3
  %11 = fcmp olt float %0, 0x3FB4CC5500000000
  br i1 %11, label %12, label %14

12:                                               ; preds = %10
  %13 = fdiv float %0, 4.500000e+00
  br label %20

14:                                               ; preds = %10
  %15 = fcmp olt float %0, 1.000000e+00
  br i1 %15, label %16, label %20

16:                                               ; preds = %14
  %17 = fadd float %0, 0x3FB96B8440000000
  %18 = fdiv float %17, 0x3FF196B840000000
  %19 = tail call float @powf(float noundef %18, float noundef 0x4001C71C80000000) #9
  br label %20

20:                                               ; preds = %14, %1, %16, %12, %5
  %.0 = phi float [ %9, %5 ], [ %13, %12 ], [ %19, %16 ], [ -2.500000e-01, %1 ], [ 1.000000e+00, %14 ]
  ret float %.0
}